; Function Attrs: mustprogress uwtable
define void @_ZN6marisa8grimoire2io6Writer4openEi(ptr noundef nonnull align 8 captures(none) dereferenceable(25) %0, i32 noundef %1) local_unnamed_addr #8 align 2 personality ptr @__gxx_personality_v0 {
  %3 = alloca %"class.marisa::grimoire::io::Writer", align 8
  %4 = icmp eq i32 %1, -1
  br i1 %4, label %5, label %11

5:                                                ; preds = %2
  %6 = tail call ptr @__cxa_allocate_exception(i64 32) #20
  store ptr getelementptr inbounds nuw inrange(-16, 24) (i8, ptr @_ZTVN6marisa9ExceptionE, i64 16), ptr %6, align 8, !tbaa !17
  %7 = getelementptr inbounds nuw i8, ptr %6, i64 8
  store ptr @.str, ptr %7, align 8, !tbaa !19
  %8 = getelementptr inbounds nuw i8, ptr %6, i64 16
  store i32 43, ptr %8, align 8, !tbaa !24
  %9 = getelementptr inbounds nuw i8, ptr %6, i64 20
  store i32 5, ptr %9, align 4, !tbaa !25
  %10 = getelementptr inbounds nuw i8, ptr %6, i64 24
  store ptr @.str.3, ptr %10, align 8, !tbaa !26
  tail call void @__cxa_throw(ptr nonnull %6, ptr nonnull @_ZTIN6marisa9ExceptionE, ptr nonnull @_ZNSt9exceptionD2Ev) #22
  unreachable

11:                                               ; preds = %2
  call void @llvm.lifetime.start.p0(i64 32, ptr nonnull %3) #20
  call void @_ZN6marisa8grimoire2io6WriterC1Ev(ptr noundef nonnull align 8 dereferenceable(25) %3)
  %12 = getelementptr inbounds nuw i8, ptr %3, i64 8
  %13 = load ptr, ptr %0, align 8, !tbaa !27
  %14 = load ptr, ptr %3, align 8, !tbaa !27
  store ptr %14, ptr %0, align 8, !tbaa !27
  store ptr %13, ptr %3, align 8, !tbaa !27
  %15 = getelementptr inbounds nuw i8, ptr %0, i64 8
  %16 = load i32, ptr %15, align 8, !tbaa !28
  store i32 %1, ptr %15, align 8, !tbaa !28
  store i32 %16, ptr %12, align 8, !tbaa !28
  %17 = getelementptr inbounds nuw i8, ptr %0, i64 16
  %18 = getelementptr inbounds nuw i8, ptr %3, i64 16
  %19 = load ptr, ptr %17, align 8, !tbaa !29
  %20 = load ptr, ptr %18, align 8, !tbaa !29
  store ptr %20, ptr %17, align 8, !tbaa !29
  store ptr %19, ptr %18, align 8, !tbaa !29
  %21 = getelementptr inbounds nuw i8, ptr %0, i64 24
  %22 = getelementptr inbounds nuw i8, ptr %3, i64 24
  %23 = load i8, ptr %21, align 8, !tbaa !30, !range !15, !noundef !16
  %24 = load i8, ptr %22, align 8, !tbaa !30, !range !15, !noundef !16
  store i8 %24, ptr %21, align 8, !tbaa !30
  store i8 %23, ptr %22, align 8, !tbaa !30
  call void @_ZN6marisa8grimoire2io6WriterD1Ev(ptr noundef nonnull align 8 dereferenceable(25) %3) #20
  call void @llvm.lifetime.end.p0(i64 32, ptr nonnull %3) #20
  ret void
}